Certificate:
    Data:
        Version: 3 (0x2)
        Serial Number: 1048581 (0x100005)
        Signature Algorithm: sha1WithRSAEncryption
        Issuer: C=ES, ST=Madrid, L=Madrid, O=Karmalabs, OU=Karmalabs, CN=Karmalabs
        Validity
            Not Before: Nov 22 16:43:31 2011 GMT
            Not After : Nov 21 16:43:31 2014 GMT
        Subject: C=ES, ST=Madrid, O=Karmalabs, OU=Karmalabs Global Services, CN=puppet
        Subject Public Key Info:
            Public Key Algorithm: rsaEncryption
                Public-Key: (1024 bit)
                Modulus:
                    00:a3:b4:07:e1:ff:70:3f:54:c0:6c:04:14:94:04:
                    10:0f:ee:8a:82:27:01:28:c0:ee:de:de:86:2c:b5:
                    fb:8f:72:c4:88:fe:87:ed:85:3f:52:8e:b6:5c:8d:
                    60:54:e4:60:71:f4:17:1e:ba:c3:da:67:cb:44:b9:
                    b1:a5:f9:09:f9:7c:32:fa:90:f3:9c:31:4d:4a:a8:
                    ac:80:dc:b4:6f:77:a7:6b:fb:65:19:b5:b1:d1:76:
                    b1:ea:39:56:69:96:10:2b:66:7c:5d:ba:f9:e4:92:
                    a6:d6:e9:58:44:6d:0d:29:24:4a:88:21:1f:15:28:
                    77:8e:7c:e7:26:65:8c:ac:1d
                Exponent: 65537 (0x10001)
        X509v3 extensions:
            X509v3 Basic Constraints: 
                CA:FALSE
            Netscape Cert Type: 
                SSL Server
            X509v3 Subject Key Identifier: 
                42:E4:E6:ED:E8:21:86:2E:5C:EA:79:0C:B1:A1:AE:E3:A2:3A:E6:BE
            X509v3 Authority Key Identifier: 
                keyid:C5:7B:F6:C7:8D:32:A5:6B:2D:44:04:A4:68:BF:9D:5C:42:C4:F0:33
                DirName:/C=ES/ST=Madrid/L=Madrid/O=Karmalabs/OU=Karmalabs/CN=Karmalabs
                serial:E4:96:9E:B5:6B:D2:25:96

            X509v3 Issuer Alternative Name: 
                <EMPTY>

            X509v3 Key Usage: 
                Digital Signature, Non Repudiation, Key Encipherment
            X509v3 Subject Alternative Name: 
                DNS:puppet, DNS:puppetnyse, DNS:puppetfacebook
    Signature Algorithm: sha1WithRSAEncryption
        47:ee:6e:c7:4b:4f:96:8b:f9:51:2e:7f:c2:9f:4a:73:46:96:
        cd:d5:ec:5c:72:af:f0:94:35:db:9e:c4:78:58:72:57:95:67:
        02:ef:b0:cc:ef:3d:16:cb:f3:eb:8a:e1:2c:49:16:84:86:7a:
        85:7e:29:34:30:dc:9a:be:62:05:bb:fa:a2:d5:6e:e5:2f:58:
        82:ca:a7:f8:70:4c:cd:08:e1:f1:91:f6:4d:e6:fe:e7:94:d0:
        42:cf:5f:29:93:99:f8:f4:16:c5:b5:35:af:3b:e0:91:87:af:
        20:e7:d9:73:b6:fc:52:ee:51:72:00:a5:99:35:90:91:80:aa:
        be:df
-----BEGIN CERTIFICATE-----
MIIDvDCCAyWgAwIBAgIDEAAFMA0GCSqGSIb3DQEBBQUAMGUxCzAJBgNVBAYTAkVT
MQ8wDQYDVQQIEwZNYWRyaWQxDzANBgNVBAcTBk1hZHJpZDEQMA4GA1UEChMHVGVs
dmVudDEQMA4GA1UECxMHVGVsdmVudDEQMA4GA1UEAxMHVGVsdmVudDAeFw0xMTEx
MjIxNjQzMzFaFw0xNDExMjExNjQzMzFaMGMxCzAJBgNVBAYTAkVTMQ8wDQYDVQQI
EwZNYWRyaWQxEDAOBgNVBAoTB1RlbHZlbnQxIDAeBgNVBAsTF1RlbHZlbnQgR2xv
YmFsIFNlcnZpY2VzMQ8wDQYDVQQDEwZwdXBwZXQwgZ8wDQYJKoZIhvcNAQEBBQAD
gY0AMIGJAoGBAKO0B+H/cD9UwGwEFJQEEA/uioInASjA7t7ehiy1+49yxIj+h+2F
P1KOtlyNYFTkYHH0Fx66w9pny0S5saX5Cfl8MvqQ85wxTUqorIDctG93p2v7ZRm1
sdF2seo5VmmWECtmfF26+eSSptbpWERtDSkkSoghHxUod4585yZljKwdAgMBAAGj
ggF6MIIBdjAJBgNVHRMEAjAAMBEGCWCGSAGG+EIBAQQEAwIGQDAdBgNVHQ4EFgQU
QuTm7eghhi5c6nkMsaGu46I65r4wgZcGA1UdIwSBjzCBjIAUxXv2x40ypWstRASk
aL+dXELE8DOhaaRnMGUxCzAJBgNVBAYTAkVTMQ8wDQYDVQQIEwZNYWRyaWQxDzAN
BgNVBAcTBk1hZHJpZDEQMA4GA1UEChMHVGVsdmVudDEQMA4GA1UECxMHVGVsdmVu
dDEQMA4GA1UEAxMHVGVsdmVudIIJAOSWnrVr0iWWMAkGA1UdEgQCMAAwCwYDVR0P
BAQDAgXgMIGEBgNVHREEfTB7ggZwdXBwZXSCCnB1cHBldC50Z3OCD3B1cHBldC5w
cm9kLmNwZIIXc21hZGF2cHVwcGV0LnlvaWdvLmluZXSCDHNtYWRhdnB1cHBldIIQ
bG1hZDAxcnR2ZXB1cHBldIIJc2pkcHVwcGV0ghBubGlhZG1jb24wMWEubmxpMA0G
CSqGSIb3DQEBBQUAA4GBAEfubsdLT5aL+VEuf8KfSnNGls3V7Fxyr/CUNduexHhY
cleVZwLvsMzvPRbL8+uK4SxJFoSGeoV+KTQw3Jq+YgW7+qLVbuUvWILKp/hwTM0I
4fGR9k3m/ueU0ELPXymTmfj0FsW1Na874JGHryDn2XO2/FLuUXIApZk1kJGAqr7f
-----END CERTIFICATE-----
